(dp1
I0
(dp2
I8
I1
sI1
I1
sI2
I1
sI4
I1
sI16
I1
ssI1
(dp3
I0
I1
sI9
I1
sI3
I1
sI5
I1
sI17
I1
ssI2
(dp4
I0
I1
sI10
I1
sI3
I1
sI18
I1
sI6
I1
ssI3
(dp5
I19
I1
sI1
I1
sI2
I1
sI11
I1
sI7
I1
ssI4
(dp6
I0
I1
sI20
I1
sI12
I1
sI5
I1
sI6
I1
ssI5
(dp7
I1
I1
sI21
I1
sI4
I1
sI13
I1
sI7
I1
ssI6
(dp8
I2
I1
sI4
I1
sI22
I1
sI14
I1
sI7
I1
ssI7
(dp9
I23
I1
sI3
I1
sI5
I1
sI6
I1
sI15
I1
ssI8
(dp10
I0
I1
sI9
I1
sI10
I1
sI12
I1
sI24
I1
ssI9
(dp11
I8
I1
sI1
I1
sI11
I1
sI13
I1
sI25
I1
ssI10
(dp12
I8
I1
sI2
I1
sI11
I1
sI26
I1
sI14
I1
ssI11
(dp13
I27
I1
sI9
I1
sI10
I1
sI3
I1
sI15
I1
ssI12
(dp14
I8
I1
sI28
I1
sI4
I1
sI13
I1
sI14
I1
ssI13
(dp15
I9
I1
sI29
I1
sI12
I1
sI5
I1
sI15
I1
ssI14
(dp16
I10
I1
sI12
I1
sI30
I1
sI6
I1
sI15
I1
ssI15
(dp17
I31
I1
sI11
I1
sI13
I1
sI14
I1
sI7
I1
ssI16
(dp18
I0
I1
sI17
I1
sI18
I1
sI20
I1
sI24
I1
ssI17
(dp19
I16
I1
sI1
I1
sI19
I1
sI21
I1
sI25
I1
ssI18
(dp20
I16
I1
sI2
I1
sI19
I1
sI26
I1
sI22
I1
ssI19
(dp21
I27
I1
sI17
I1
sI18
I1
sI3
I1
sI23
I1
ssI20
(dp22
I16
I1
sI28
I1
sI4
I1
sI21
I1
sI22
I1
ssI21
(dp23
I17
I1
sI29
I1
sI20
I1
sI5
I1
sI23
I1
ssI22
(dp24
I18
I1
sI20
I1
sI30
I1
sI6
I1
sI23
I1
ssI23
(dp25
I31
I1
sI19
I1
sI21
I1
sI22
I1
sI7
I1
ssI24
(dp26
I8
I1
sI16
I1
sI26
I1
sI28
I1
sI25
I1
ssI25
(dp27
I24
I1
sI9
I1
sI27
I1
sI29
I1
sI17
I1
ssI26
(dp28
I24
I1
sI10
I1
sI27
I1
sI18
I1
sI30
I1
ssI27
(dp29
I19
I1
sI25
I1
sI26
I1
sI11
I1
sI31
I1
ssI28
(dp30
I24
I1
sI20
I1
sI12
I1
sI29
I1
sI30
I1
ssI29
(dp31
I25
I1
sI31
I1
sI28
I1
sI13
I1
sI21
I1
ssI30
(dp32
I26
I1
sI28
I1
sI22
I1
sI14
I1
sI31
I1
ssI31
(dp33
I27
I1
sI23
I1
sI29
I1
sI30
I1
sI15
I1
ss.